target datalayout = "e-m:e-p270:32:32-p271:32:32-p272:64:64-i64:64-i128:128-f80:128-n8:16:32:64-S128"
target triple = "x86_64-pc-linux-gnu"

%struct.AVFilterPad = type { ptr, i32, i32, %union.anon, ptr, ptr, ptr }
%union.anon = type { ptr }
%struct.AVFilterContext = type { ptr, ptr, ptr, ptr, ptr, i32, ptr, ptr, i32, ptr, ptr, i32, i32, ptr, ptr, ptr, ptr, i32, ptr, i32, i32 }
%struct.AudioNEqualizerContext = type { ptr, ptr, ptr, i32, i32, i32, double, i32, i32, i32, ptr, ptr }

@.str.26 = private unnamed_addr constant [5 x i8] c"out0\00", align 1
@.str.27 = private unnamed_addr constant [5 x i8] c"out1\00", align 1

; Function Attrs: cold nounwind optsize uwtable
define internal i32 @init(ptr noundef %0) #0 {
  %2 = alloca i32, align 4
  %3 = alloca ptr, align 8
  %4 = alloca ptr, align 8
  %5 = alloca %struct.AVFilterPad, align 8
  %6 = alloca %struct.AVFilterPad, align 8
  %7 = alloca i32, align 4
  %8 = alloca %struct.AVFilterPad, align 8
  %9 = alloca i32, align 4
  %10 = alloca %struct.AVFilterPad, align 8
  store ptr %0, ptr %3, align 8, !tbaa !4
  call void @llvm.lifetime.start.p0(i64 8, ptr %4) #13
  %11 = load ptr, ptr %3, align 8, !tbaa !4
  %12 = getelementptr inbounds nuw %struct.AVFilterContext, ptr %11, i32 0, i32 9
  %13 = load ptr, ptr %12, align 8, !tbaa !9
  store ptr %13, ptr %4, align 8, !tbaa !22
  call void @llvm.lifetime.start.p0(i64 48, ptr %5) #13
  call void @llvm.lifetime.start.p0(i64 48, ptr %6) #13
  call void @llvm.lifetime.start.p0(i64 4, ptr %7) #13
  call void @llvm.memset.p0.i64(ptr align 8 %8, i8 0, i64 48, i1 false)
  %14 = getelementptr inbounds nuw %struct.AVFilterPad, ptr %8, i32 0, i32 0
  store ptr @.str.26, ptr %14, align 8, !tbaa !24
  %15 = getelementptr inbounds nuw %struct.AVFilterPad, ptr %8, i32 0, i32 1
  store i32 1, ptr %15, align 8, !tbaa !26
  call void @llvm.memcpy.p0.p0.i64(ptr align 8 %5, ptr align 8 %8, i64 48, i1 false), !tbaa.struct !27
  %16 = load ptr, ptr %3, align 8, !tbaa !4
  %17 = call i32 @ff_append_outpad(ptr noundef %16, ptr noundef %5)
  store i32 %17, ptr %7, align 4, !tbaa !29
  %18 = load i32, ptr %7, align 4, !tbaa !29
  %19 = icmp slt i32 %18, 0
  br i1 %19, label %20, label %22

20:                                               ; preds = %1
  %21 = load i32, ptr %7, align 4, !tbaa !29
  store i32 %21, ptr %2, align 4
  store i32 1, ptr %9, align 4
  br label %43

22:                                               ; preds = %1
  %23 = load ptr, ptr %4, align 8, !tbaa !22
  %24 = getelementptr inbounds nuw %struct.AudioNEqualizerContext, ptr %23, i32 0, i32 3
  %25 = load i32, ptr %24, align 8, !tbaa !32
  %26 = icmp ne i32 %25, 0
  br i1 %26, label %27, label %42

27:                                               ; preds = %22
  %28 = getelementptr inbounds nuw %struct.AVFilterPad, ptr %10, i32 0, i32 0
  store ptr @.str.27, ptr %28, align 8, !tbaa !24
  %29 = getelementptr inbounds nuw %struct.AVFilterPad, ptr %10, i32 0, i32 1
  store i32 0, ptr %29, align 8, !tbaa !26
  %30 = getelementptr inbounds nuw %struct.AVFilterPad, ptr %10, i32 0, i32 2
  store i32 0, ptr %30, align 4, !tbaa !37
  %31 = getelementptr inbounds nuw %struct.AVFilterPad, ptr %10, i32 0, i32 3
  call void @llvm.memset.p0.i64(ptr align 8 %31, i8 0, i64 8, i1 false)
  %32 = getelementptr inbounds nuw %struct.AVFilterPad, ptr %10, i32 0, i32 4
  store ptr null, ptr %32, align 8, !tbaa !38
  %33 = getelementptr inbounds nuw %struct.AVFilterPad, ptr %10, i32 0, i32 5
  store ptr null, ptr %33, align 8, !tbaa !39
  %34 = getelementptr inbounds nuw %struct.AVFilterPad, ptr %10, i32 0, i32 6
  store ptr @config_video, ptr %34, align 8, !tbaa !40
  call void @llvm.memcpy.p0.p0.i64(ptr align 8 %6, ptr align 8 %10, i64 48, i1 false), !tbaa.struct !27
  %35 = load ptr, ptr %3, align 8, !tbaa !4
  %36 = call i32 @ff_append_outpad(ptr noundef %35, ptr noundef %6)
  store i32 %36, ptr %7, align 4, !tbaa !29
  %37 = load i32, ptr %7, align 4, !tbaa !29
  %38 = icmp slt i32 %37, 0
  br i1 %38, label %39, label %41

39:                                               ; preds = %27
  %40 = load i32, ptr %7, align 4, !tbaa !29
  store i32 %40, ptr %2, align 4
  store i32 1, ptr %9, align 4
  br label %43

41:                                               ; preds = %27
  br label %42

42:                                               ; preds = %41, %22
  store i32 0, ptr %2, align 4
  store i32 1, ptr %9, align 4
  br label %43

43:                                               ; preds = %42, %39, %20
  call void @llvm.lifetime.end.p0(i64 4, ptr %7) #13
  call void @llvm.lifetime.end.p0(i64 48, ptr %6) #13
  call void @llvm.lifetime.end.p0(i64 48, ptr %5) #13
  call void @llvm.lifetime.end.p0(i64 8, ptr %4) #13
  %44 = load i32, ptr %2, align 4
  ret i32 %44
}