; Function Attrs: cold nounwind optsize uwtable
define internal range(i32 -2147483648, 1) i32 @init(ptr noundef %0) #0 {
  %2 = alloca %struct.AVFilterPad, align 8
  %3 = alloca %struct.AVFilterPad, align 8
  %4 = getelementptr inbounds nuw i8, ptr %0, i64 72
  %5 = load ptr, ptr %4, align 8, !tbaa !4
  call void @llvm.lifetime.start.p0(i64 48, ptr nonnull %2) #15
  call void @llvm.lifetime.start.p0(i64 48, ptr nonnull %3) #15
  %.sroa.43.0..sroa_idx = getelementptr inbounds nuw i8, ptr %2, i64 12
  call void @llvm.memset.p0.i64(ptr noundef nonnull align 4 dereferenceable(36) %.sroa.43.0..sroa_idx, i8 0, i64 36, i1 false)
  store ptr @.str.26, ptr %2, align 8, !tbaa !20
  %.sroa.32.0..sroa_idx = getelementptr inbounds nuw i8, ptr %2, i64 8
  store i32 1, ptr %.sroa.32.0..sroa_idx, align 8, !tbaa !21
  %6 = call i32 @ff_append_outpad(ptr noundef %0, ptr noundef nonnull %2) #15
  %7 = icmp slt i32 %6, 0
  br i1 %7, label %15, label %8

8:                                                ; preds = %1
  %9 = getelementptr inbounds nuw i8, ptr %5, i64 24
  %10 = load i32, ptr %9, align 8, !tbaa !22
  %.not = icmp eq i32 %10, 0
  br i1 %.not, label %14, label %11

11:                                               ; preds = %8
  store ptr @.str.27, ptr %3, align 8, !tbaa !20
  %.sroa.2.0..sroa_idx = getelementptr inbounds nuw i8, ptr %3, i64 8
  %.sroa.7.0..sroa_idx = getelementptr inbounds nuw i8, ptr %3, i64 40
  call void @llvm.memset.p0.i64(ptr noundef nonnull align 8 dereferenceable(32) %.sroa.2.0..sroa_idx, i8 0, i64 32, i1 false)
  store ptr @config_video, ptr %.sroa.7.0..sroa_idx, align 8, !tbaa !27
  %12 = call i32 @ff_append_outpad(ptr noundef nonnull %0, ptr noundef nonnull %3) #15
  %13 = icmp slt i32 %12, 0
  br i1 %13, label %15, label %14

14:                                               ; preds = %11, %8
  br label %15

15:                                               ; preds = %11, %1, %14
  %.0 = phi i32 [ 0, %14 ], [ %6, %1 ], [ %12, %11 ]
  call void @llvm.lifetime.end.p0(i64 48, ptr nonnull %3) #15
  call void @llvm.lifetime.end.p0(i64 48, ptr nonnull %2) #15
  ret i32 %.0
}